target datalayout = "e-m:e-p270:32:32-p271:32:32-p272:64:64-i64:64-i128:128-f80:128-n8:16:32:64-S128"
target triple = "x86_64-pc-linux-gnu"

%"class.Eigen::DenseStorage" = type { %"struct.Eigen::internal::plain_array" }
%"struct.Eigen::internal::plain_array" = type { [3 x float] }
%"class.Eigen::PlainObjectBase.12" = type { %"class.Eigen::DenseStorage" }

; Function Attrs: mustprogress nounwind uwtable
define linkonce_odr hidden noundef ptr @_ZNK5Eigen12DenseStorageIfLi3ELi3ELi1ELi0EE4dataEv(ptr noundef nonnull align 4 dereferenceable(12) %0) #5 comdat align 2 {
  %2 = alloca ptr, align 8
  store ptr %0, ptr %2, align 8
  %3 = load ptr, ptr %2, align 8
  %4 = getelementptr inbounds %"class.Eigen::DenseStorage", ptr %3, i32 0, i32 0
  %5 = getelementptr inbounds %"struct.Eigen::internal::plain_array", ptr %4, i32 0, i32 0
  %6 = getelementptr inbounds [3 x float], ptr %5, i64 0, i64 0
  ret ptr %6
}

; Function Attrs: mustprogress nounwind uwtable
define linkonce_odr hidden noundef nonnull align 4 dereferenceable(4) ptr @_ZNK5Eigen15PlainObjectBaseINS_5ArrayIfLi3ELi1ELi0ELi3ELi1EEEE5coeffEl(ptr noundef nonnull align 4 dereferenceable(12) %0, i64 noundef %1) #5 comdat align 2 {
  %3 = alloca ptr, align 8
  %4 = alloca i64, align 8
  store ptr %0, ptr %3, align 8
  store i64 %1, ptr %4, align 8
  %5 = load ptr, ptr %3, align 8
  %6 = getelementptr inbounds %"class.Eigen::PlainObjectBase.12", ptr %5, i32 0, i32 0
  %7 = call noundef ptr @_ZNK5Eigen12DenseStorageIfLi3ELi3ELi1ELi0EE4dataEv(ptr noundef nonnull align 4 dereferenceable(12) %6)
  %8 = load i64, ptr %4, align 8
  %9 = getelementptr inbounds float, ptr %7, i64 %8
  ret ptr %9
}

; Function Attrs: mustprogress uwtable
define hidden noundef float @_ZNK4nori7Color3f12getLuminanceEv(ptr noundef nonnull align 4 dereferenceable(12) %0) #4 align 2 {
  %2 = alloca ptr, align 8
  store ptr %0, ptr %2, align 8
  %3 = load ptr, ptr %2, align 8
  %4 = call noundef nonnull align 4 dereferenceable(4) ptr @_ZNK5Eigen15PlainObjectBaseINS_5ArrayIfLi3ELi1ELi0ELi3ELi1EEEE5coeffEl(ptr noundef nonnull align 4 dereferenceable(12) %3, i64 noundef 0)
  %5 = load float, ptr %4, align 4
  %6 = call noundef nonnull align 4 dereferenceable(4) ptr @_ZNK5Eigen15PlainObjectBaseINS_5ArrayIfLi3ELi1ELi0ELi3ELi1EEEE5coeffEl(ptr noundef nonnull align 4 dereferenceable(12) %3, i64 noundef 1)
  %7 = load float, ptr %6, align 4
  %8 = fmul float %7, 0x3FE6E29740000000
  %9 = call float @llvm.fmuladd.f32(float %5, float 0x3FCB38CDA0000000, float %8)
  %10 = call noundef nonnull align 4 dereferenceable(4) ptr @_ZNK5Eigen15PlainObjectBaseINS_5ArrayIfLi3ELi1ELi0ELi3ELi1EEEE5coeffEl(ptr noundef nonnull align 4 dereferenceable(12) %3, i64 noundef 2)
  %11 = load float, ptr %10, align 4
  %12 = call float @llvm.fmuladd.f32(float %11, float 0x3FB279AAE0000000, float %9)
  ret float %12
}