; Function Attrs: mustprogress nofree norecurse nosync nounwind willreturn memory(argmem: read) uwtable
define hidden noundef float @_ZNK4nori7Color3f12getLuminanceEv(ptr nocapture noundef nonnull readonly align 4 dereferenceable(12) %0) local_unnamed_addr #12 align 2 {
  %2 = load float, ptr %0, align 4
  %3 = getelementptr inbounds i8, ptr %0, i64 4
  %4 = load float, ptr %3, align 4
  %5 = fmul float %4, 0x3FE6E29740000000
  %6 = tail call float @llvm.fmuladd.f32(float %2, float 0x3FCB38CDA0000000, float %5)
  %7 = getelementptr inbounds i8, ptr %0, i64 8
  %8 = load float, ptr %7, align 4
  %9 = tail call float @llvm.fmuladd.f32(float %8, float 0x3FB279AAE0000000, float %6)
  ret float %9
}